target datalayout = "e-m:e-p270:32:32-p271:32:32-p272:64:64-i64:64-i128:128-f80:128-n8:16:32:64-S128"
target triple = "x86_64-unknown-linux-gnu"

%"class.zmq::encoder_base_t" = type { %"struct.zmq::i_encoder", ptr, i64, { i64, i64 }, i8, i64, ptr, ptr }
%"struct.zmq::i_encoder" = type { ptr }

@stderr = external global ptr, align 8
@.str = private unnamed_addr constant [36 x i8] c"FATAL ERROR: OUT OF MEMORY (%s:%d)\0A\00", align 1
@.str.1 = private unnamed_addr constant [107 x i8] c"generated/home/dtcxzyw/WorkSpace/Projects/compilers/llvm-opt-benchmark/bench/libzmq/libzmq/src/encoder.hpp\00", align 1
@.str.2 = private unnamed_addr constant [27 x i8] c"FATAL ERROR: OUT OF MEMORY\00", align 1
@_ZTVN3zmq9i_encoderE = linkonce_odr unnamed_addr constant { [6 x ptr] } { [6 x ptr] [ptr null, ptr @_ZTIN3zmq9i_encoderE, ptr @_ZN3zmq9i_encoderD2Ev, ptr @_ZN3zmq9i_encoderD0Ev, ptr @__cxa_pure_virtual, ptr @__cxa_pure_virtual] }, comdat, align 8

; Function Attrs: mustprogress nounwind uwtable
define linkonce_odr void @_ZN3zmq9i_encoderD2Ev(ptr noundef nonnull align 8 dereferenceable(8) %this) unnamed_addr #1 comdat align 2 {
entry:
  %this.addr = alloca ptr, align 8
  store ptr %this, ptr %this.addr, align 8
  ret void
}

; Function Attrs: mustprogress nounwind uwtable
define linkonce_odr void @_ZN3zmq9i_encoderC2Ev(ptr noundef nonnull align 8 dereferenceable(8) %this) unnamed_addr #1 comdat align 2 {
entry:
  %this.addr = alloca ptr, align 8
  store ptr %this, ptr %this.addr, align 8
  %this1 = load ptr, ptr %this.addr, align 8
  store ptr getelementptr inbounds ({ [6 x ptr] }, ptr @_ZTVN3zmq9i_encoderE, i32 0, i32 0, i32 2), ptr %this1, align 8
  ret void
}

; Function Attrs: mustprogress nounwind uwtable
define linkonce_odr void @_ZN3zmq14encoder_base_tINS_13raw_encoder_tEED2Ev(ptr noundef nonnull align 8 dereferenceable(72) %this) unnamed_addr #1 comdat align 2 {
entry:
  %this.addr = alloca ptr, align 8
  store ptr %this, ptr %this.addr, align 8
  %this1 = load ptr, ptr %this.addr, align 8
  store ptr getelementptr inbounds ({ [6 x ptr] }, ptr @_ZTVN3zmq14encoder_base_tINS_13raw_encoder_tEEE, i32 0, i32 0, i32 2), ptr %this1, align 8
  %_buf = getelementptr inbounds %"class.zmq::encoder_base_t", ptr %this1, i32 0, i32 6
  %0 = load ptr, ptr %_buf, align 8
  call void @free(ptr noundef %0) #9
  call void @_ZN3zmq9i_encoderD2Ev(ptr noundef nonnull align 8 dereferenceable(8) %this1) #9
  ret void
}

; Function Attrs: mustprogress nounwind uwtable
define linkonce_odr void @_ZN3zmq14encoder_base_tINS_13raw_encoder_tEE9next_stepEPvmMS1_FvvEb(ptr noundef nonnull align 8 dereferenceable(72) %this, ptr noundef %write_pos_, i64 noundef %to_write_, i64 %next_.coerce0, i64 %next_.coerce1, i1 noundef zeroext %new_msg_flag_) #1 comdat align 2 {
entry:
  %next_ = alloca { i64, i64 }, align 8
  %this.addr = alloca ptr, align 8
  %write_pos_.addr = alloca ptr, align 8
  %to_write_.addr = alloca i64, align 8
  %next_.addr = alloca { i64, i64 }, align 8
  %new_msg_flag_.addr = alloca i8, align 1
  %0 = getelementptr inbounds { i64, i64 }, ptr %next_, i32 0, i32 0
  store i64 %next_.coerce0, ptr %0, align 8
  %1 = getelementptr inbounds { i64, i64 }, ptr %next_, i32 0, i32 1
  store i64 %next_.coerce1, ptr %1, align 8
  %next_1 = load { i64, i64 }, ptr %next_, align 8
  store ptr %this, ptr %this.addr, align 8
  store ptr %write_pos_, ptr %write_pos_.addr, align 8
  store i64 %to_write_, ptr %to_write_.addr, align 8
  store { i64, i64 } %next_1, ptr %next_.addr, align 8
  %frombool = zext i1 %new_msg_flag_ to i8
  store i8 %frombool, ptr %new_msg_flag_.addr, align 1
  %this2 = load ptr, ptr %this.addr, align 8
  %2 = load ptr, ptr %write_pos_.addr, align 8
  %_write_pos = getelementptr inbounds %"class.zmq::encoder_base_t", ptr %this2, i32 0, i32 1
  store ptr %2, ptr %_write_pos, align 8
  %3 = load i64, ptr %to_write_.addr, align 8
  %_to_write = getelementptr inbounds %"class.zmq::encoder_base_t", ptr %this2, i32 0, i32 2
  store i64 %3, ptr %_to_write, align 8
  %4 = load { i64, i64 }, ptr %next_.addr, align 8
  %_next = getelementptr inbounds %"class.zmq::encoder_base_t", ptr %this2, i32 0, i32 3
  store { i64, i64 } %4, ptr %_next, align 8
  %5 = load i8, ptr %new_msg_flag_.addr, align 1
  %tobool = trunc i8 %5 to i1
  %_new_msg_flag = getelementptr inbounds %"class.zmq::encoder_base_t", ptr %this2, i32 0, i32 4
  %frombool3 = zext i1 %tobool to i8
  store i8 %frombool3, ptr %_new_msg_flag, align 8
  ret void
}

; Function Attrs: mustprogress uwtable
define linkonce_odr void @_ZN3zmq14encoder_base_tINS_13raw_encoder_tEEC2Em(ptr noundef nonnull align 8 dereferenceable(72) %this, i64 noundef %bufsize_) unnamed_addr #0 comdat align 2 personality ptr @__gxx_personality_v0 {
entry:
  %this.addr = alloca ptr, align 8
  %bufsize_.addr = alloca i64, align 8
  %exn.slot = alloca ptr, align 8
  %ehselector.slot = alloca i32, align 4
  store ptr %this, ptr %this.addr, align 8
  store i64 %bufsize_, ptr %bufsize_.addr, align 8
  %this1 = load ptr, ptr %this.addr, align 8
  call void @_ZN3zmq9i_encoderC2Ev(ptr noundef nonnull align 8 dereferenceable(8) %this1) #9
  store ptr getelementptr inbounds ({ [6 x ptr] }, ptr @_ZTVN3zmq14encoder_base_tINS_13raw_encoder_tEEE, i32 0, i32 0, i32 2), ptr %this1, align 8
  %_write_pos = getelementptr inbounds %"class.zmq::encoder_base_t", ptr %this1, i32 0, i32 1
  store ptr null, ptr %_write_pos, align 8
  %_to_write = getelementptr inbounds %"class.zmq::encoder_base_t", ptr %this1, i32 0, i32 2
  store i64 0, ptr %_to_write, align 8
  %_next = getelementptr inbounds %"class.zmq::encoder_base_t", ptr %this1, i32 0, i32 3
  store { i64, i64 } zeroinitializer, ptr %_next, align 8
  %_new_msg_flag = getelementptr inbounds %"class.zmq::encoder_base_t", ptr %this1, i32 0, i32 4
  store i8 0, ptr %_new_msg_flag, align 8
  %_buf_size = getelementptr inbounds %"class.zmq::encoder_base_t", ptr %this1, i32 0, i32 5
  %0 = load i64, ptr %bufsize_.addr, align 8
  store i64 %0, ptr %_buf_size, align 8
  %_buf = getelementptr inbounds %"class.zmq::encoder_base_t", ptr %this1, i32 0, i32 6
  %1 = load i64, ptr %bufsize_.addr, align 8
  %call = call noalias ptr @malloc(i64 noundef %1) #10
  store ptr %call, ptr %_buf, align 8
  %_in_progress = getelementptr inbounds %"class.zmq::encoder_base_t", ptr %this1, i32 0, i32 7
  store ptr null, ptr %_in_progress, align 8
  br label %do.body

do.body:                                          ; preds = %entry
  %_buf2 = getelementptr inbounds %"class.zmq::encoder_base_t", ptr %this1, i32 0, i32 6
  %2 = load ptr, ptr %_buf2, align 8
  %tobool = icmp ne ptr %2, null
  %lnot = xor i1 %tobool, true
  br i1 %lnot, label %if.then, label %if.end

if.then:                                          ; preds = %do.body
  %3 = load ptr, ptr @stderr, align 8
  %call3 = invoke i32 (ptr, ptr, ...) @fprintf(ptr noundef %3, ptr noundef @.str, ptr noundef @.str.1, i32 noundef 39)
          to label %invoke.cont unwind label %lpad

invoke.cont:                                      ; preds = %if.then
  %4 = load ptr, ptr @stderr, align 8
  %call5 = invoke i32 @fflush(ptr noundef %4)
          to label %invoke.cont4 unwind label %lpad

invoke.cont4:                                     ; preds = %invoke.cont
  invoke void @_ZN3zmq9zmq_abortEPKc(ptr noundef @.str.2)
          to label %invoke.cont6 unwind label %lpad

invoke.cont6:                                     ; preds = %invoke.cont4
  br label %if.end

lpad:                                             ; preds = %invoke.cont4, %invoke.cont, %if.then
  %5 = landingpad { ptr, i32 }
          cleanup
  %6 = extractvalue { ptr, i32 } %5, 0
  store ptr %6, ptr %exn.slot, align 8
  %7 = extractvalue { ptr, i32 } %5, 1
  store i32 %7, ptr %ehselector.slot, align 4
  call void @_ZN3zmq9i_encoderD2Ev(ptr noundef nonnull align 8 dereferenceable(8) %this1) #9
  br label %eh.resume

if.end:                                           ; preds = %invoke.cont6, %do.body
  br label %do.cond

do.cond:                                          ; preds = %if.end
  br label %do.end

do.end:                                           ; preds = %do.cond
  ret void

eh.resume:                                        ; preds = %lpad
  %exn = load ptr, ptr %exn.slot, align 8
  %sel = load i32, ptr %ehselector.slot, align 4
  %lpad.val = insertvalue { ptr, i32 } poison, ptr %exn, 0
  %lpad.val7 = insertvalue { ptr, i32 } %lpad.val, i32 %sel, 1
  resume { ptr, i32 } %lpad.val7
}

; Function Attrs: mustprogress uwtable
define void @_ZN3zmq13raw_encoder_tC2Em(ptr noundef nonnull align 8 dereferenceable(72) %this, i64 noundef %bufsize_) unnamed_addr #0 align 2 personality ptr @__gxx_personality_v0 {
entry:
  %this.addr = alloca ptr, align 8
  %bufsize_.addr = alloca i64, align 8
  %coerce = alloca { i64, i64 }, align 8
  %exn.slot = alloca ptr, align 8
  %ehselector.slot = alloca i32, align 4
  store ptr %this, ptr %this.addr, align 8
  store i64 %bufsize_, ptr %bufsize_.addr, align 8
  %this1 = load ptr, ptr %this.addr, align 8
  %0 = load i64, ptr %bufsize_.addr, align 8
  call void @_ZN3zmq14encoder_base_tINS_13raw_encoder_tEEC2Em(ptr noundef nonnull align 8 dereferenceable(72) %this1, i64 noundef %0)
  store ptr getelementptr inbounds ({ [6 x ptr] }, ptr @_ZTVN3zmq13raw_encoder_tE, i32 0, i32 0, i32 2), ptr %this1, align 8
  store { i64, i64 } { i64 ptrtoint (ptr @_ZN3zmq13raw_encoder_t17raw_message_readyEv to i64), i64 0 }, ptr %coerce, align 8
  %1 = getelementptr inbounds { i64, i64 }, ptr %coerce, i32 0, i32 0
  %2 = load i64, ptr %1, align 8
  %3 = getelementptr inbounds { i64, i64 }, ptr %coerce, i32 0, i32 1
  %4 = load i64, ptr %3, align 8
  invoke void @_ZN3zmq14encoder_base_tINS_13raw_encoder_tEE9next_stepEPvmMS1_FvvEb(ptr noundef nonnull align 8 dereferenceable(72) %this1, ptr noundef null, i64 noundef 0, i64 %2, i64 %4, i1 noundef zeroext true)
          to label %invoke.cont unwind label %lpad

invoke.cont:                                      ; preds = %entry
  ret void

lpad:                                             ; preds = %entry
  %5 = landingpad { ptr, i32 }
          cleanup
  %6 = extractvalue { ptr, i32 } %5, 0
  store ptr %6, ptr %exn.slot, align 8
  %7 = extractvalue { ptr, i32 } %5, 1
  store i32 %7, ptr %ehselector.slot, align 4
  call void @_ZN3zmq14encoder_base_tINS_13raw_encoder_tEED2Ev(ptr noundef nonnull align 8 dereferenceable(72) %this1) #9
  br label %eh.resume

eh.resume:                                        ; preds = %lpad
  %exn = load ptr, ptr %exn.slot, align 8
  %sel = load i32, ptr %ehselector.slot, align 4
  %lpad.val = insertvalue { ptr, i32 } poison, ptr %exn, 0
  %lpad.val2 = insertvalue { ptr, i32 } %lpad.val, i32 %sel, 1
  resume { ptr, i32 } %lpad.val2
}